target datalayout = "e-m:e-p270:32:32-p271:32:32-p272:64:64-i64:64-i128:128-f80:128-n8:16:32:64-S128"
target triple = "x86_64-pc-linux-gnu"

%"class.llvm::LLT" = type { i64 }
%"struct.std::pair.26" = type { i8, %"class.llvm::LLT" }
%"struct.llvm::InstrAspect" = type { i32, i32, %"class.llvm::LLT" }
%"struct.llvm::LegacyLegalizeActionStep" = type { i8, i32, %"class.llvm::LLT" }
%"struct.llvm::LegalityQuery" = type { i32, %"class.llvm::ArrayRef", %"class.llvm::ArrayRef.31" }
%"class.llvm::ArrayRef" = type { ptr, i64 }
%"class.llvm::ArrayRef.31" = type { ptr, i64 }

; Function Attrs: mustprogress nounwind uwtable
define linkonce_odr hidden noundef zeroext i1 @_ZNK4llvm3LLT7isValidEv(ptr noundef nonnull align 8 dereferenceable(8) %0) #0 comdat align 2 {
  %2 = alloca ptr, align 8
  store ptr %0, ptr %2, align 8
  %3 = load ptr, ptr %2, align 8
  %4 = load i64, ptr %3, align 8
  %5 = and i64 %4, 1
  %6 = icmp ne i64 %5, 0
  br i1 %6, label %11, label %7

7:                                                ; preds = %1
  %8 = load i64, ptr %3, align 8
  %9 = lshr i64 %8, 3
  %10 = icmp ne i64 %9, 0
  br label %11

11:                                               ; preds = %7, %1
  %12 = phi i1 [ true, %1 ], [ %10, %7 ]
  ret i1 %12
}

; Function Attrs: mustprogress nounwind uwtable
define linkonce_odr hidden noundef zeroext i1 @_ZNK4llvm3LLT9isPointerEv(ptr noundef nonnull align 8 dereferenceable(8) %0) #0 comdat align 2 {
  %2 = alloca ptr, align 8
  store ptr %0, ptr %2, align 8
  %3 = load ptr, ptr %2, align 8
  %4 = call noundef zeroext i1 @_ZNK4llvm3LLT7isValidEv(ptr noundef nonnull align 8 dereferenceable(8) %3)
  br i1 %4, label %5, label %16

5:                                                ; preds = %1
  %6 = load i64, ptr %3, align 8
  %7 = lshr i64 %6, 1
  %8 = and i64 %7, 1
  %9 = icmp ne i64 %8, 0
  br i1 %9, label %10, label %16

10:                                               ; preds = %5
  %11 = load i64, ptr %3, align 8
  %12 = lshr i64 %11, 2
  %13 = and i64 %12, 1
  %14 = icmp ne i64 %13, 0
  %15 = xor i1 %14, true
  br label %16

16:                                               ; preds = %10, %5, %1
  %17 = phi i1 [ false, %5 ], [ false, %1 ], [ %15, %10 ]
  ret i1 %17
}

; Function Attrs: mustprogress nounwind uwtable
define linkonce_odr hidden noundef zeroext i1 @_ZNK4llvm3LLT8isScalarEv(ptr noundef nonnull align 8 dereferenceable(8) %0) #0 comdat align 2 {
  %2 = alloca ptr, align 8
  store ptr %0, ptr %2, align 8
  %3 = load ptr, ptr %2, align 8
  %4 = load i64, ptr %3, align 8
  %5 = and i64 %4, 1
  %6 = icmp ne i64 %5, 0
  ret i1 %6
}

; Function Attrs: mustprogress nounwind uwtable
define linkonce_odr hidden void @_ZN4llvm3LLTC2Ev(ptr noundef nonnull align 8 dereferenceable(8) %0) unnamed_addr #0 comdat align 2 {
  %2 = alloca ptr, align 8
  store ptr %0, ptr %2, align 8
  %3 = load ptr, ptr %2, align 8
  %4 = load i64, ptr %3, align 8
  %5 = and i64 %4, -2
  %6 = or i64 %5, 0
  store i64 %6, ptr %3, align 8
  %7 = load i64, ptr %3, align 8
  %8 = and i64 %7, -3
  %9 = or i64 %8, 0
  store i64 %9, ptr %3, align 8
  %10 = load i64, ptr %3, align 8
  %11 = and i64 %10, -5
  %12 = or i64 %11, 0
  store i64 %12, ptr %3, align 8
  %13 = load i64, ptr %3, align 8
  %14 = and i64 %13, 7
  %15 = or i64 %14, 0
  store i64 %15, ptr %3, align 8
  ret void
}

; Function Attrs: mustprogress nounwind uwtable
define linkonce_odr hidden void @_ZN4llvm24LegacyLegalizeActionStepC2ENS_21LegacyLegalizeActions20LegacyLegalizeActionEjNS_3LLTE(ptr noundef nonnull align 8 dereferenceable(16) %0, i8 noundef zeroext %1, i32 noundef %2, i64 %3) unnamed_addr #0 comdat align 2 {
  %5 = alloca %"class.llvm::LLT", align 8
  %6 = alloca ptr, align 8
  %7 = alloca i8, align 1
  %8 = alloca i32, align 4
  %9 = getelementptr inbounds nuw %"class.llvm::LLT", ptr %5, i32 0, i32 0
  store i64 %3, ptr %9, align 8
  store ptr %0, ptr %6, align 8
  store i8 %1, ptr %7, align 1
  store i32 %2, ptr %8, align 4
  %10 = load ptr, ptr %6, align 8
  %11 = getelementptr inbounds nuw %"struct.llvm::LegacyLegalizeActionStep", ptr %10, i32 0, i32 0
  %12 = load i8, ptr %7, align 1
  store i8 %12, ptr %11, align 8
  %13 = getelementptr inbounds nuw %"struct.llvm::LegacyLegalizeActionStep", ptr %10, i32 0, i32 1
  %14 = load i32, ptr %8, align 4
  store i32 %14, ptr %13, align 4
  %15 = getelementptr inbounds nuw %"struct.llvm::LegacyLegalizeActionStep", ptr %10, i32 0, i32 2
  call void @llvm.memcpy.p0.p0.i64(ptr align 8 %15, ptr align 8 %5, i64 8, i1 false)
  ret void
}

; Function Attrs: mustprogress nounwind uwtable
define dso_local { i8, i64 } @_ZNK4llvm19LegacyLegalizerInfo15getAspectActionERKNS_11InstrAspectE(ptr noundef nonnull align 8 dereferenceable(80040) %0, ptr noundef nonnull align 8 dereferenceable(16) %1) #0 align 2 {
  %3 = alloca %"struct.std::pair.26", align 8
  %4 = alloca ptr, align 8
  %5 = alloca ptr, align 8
  store ptr %0, ptr %4, align 8
  store ptr %1, ptr %5, align 8
  %6 = load ptr, ptr %4, align 8
  %7 = load ptr, ptr %5, align 8
  %8 = getelementptr inbounds nuw %"struct.llvm::InstrAspect", ptr %7, i32 0, i32 2
  %9 = call noundef zeroext i1 @_ZNK4llvm3LLT8isScalarEv(ptr noundef nonnull align 8 dereferenceable(8) %8)
  br i1 %9, label %14, label %10

10:                                               ; preds = %2
  %11 = load ptr, ptr %5, align 8
  %12 = getelementptr inbounds nuw %"struct.llvm::InstrAspect", ptr %11, i32 0, i32 2
  %13 = call noundef zeroext i1 @_ZNK4llvm3LLT9isPointerEv(ptr noundef nonnull align 8 dereferenceable(8) %12)
  br i1 %13, label %14, label %21

14:                                               ; preds = %10, %2
  %15 = load ptr, ptr %5, align 8
  %16 = call { i8, i64 } @_ZNK4llvm19LegacyLegalizerInfo21findScalarLegalActionERKNS_11InstrAspectE(ptr noundef nonnull align 8 dereferenceable(80040) %6, ptr noundef nonnull align 8 dereferenceable(16) %15)
  %17 = getelementptr inbounds nuw { i8, i64 }, ptr %3, i32 0, i32 0
  %18 = extractvalue { i8, i64 } %16, 0
  store i8 %18, ptr %17, align 8
  %19 = getelementptr inbounds nuw { i8, i64 }, ptr %3, i32 0, i32 1
  %20 = extractvalue { i8, i64 } %16, 1
  store i64 %20, ptr %19, align 8
  br label %28

21:                                               ; preds = %10
  %22 = load ptr, ptr %5, align 8
  %23 = call { i8, i64 } @_ZNK4llvm19LegacyLegalizerInfo21findVectorLegalActionERKNS_11InstrAspectE(ptr noundef nonnull align 8 dereferenceable(80040) %6, ptr noundef nonnull align 8 dereferenceable(16) %22)
  %24 = getelementptr inbounds nuw { i8, i64 }, ptr %3, i32 0, i32 0
  %25 = extractvalue { i8, i64 } %23, 0
  store i8 %25, ptr %24, align 8
  %26 = getelementptr inbounds nuw { i8, i64 }, ptr %3, i32 0, i32 1
  %27 = extractvalue { i8, i64 } %23, 1
  store i64 %27, ptr %26, align 8
  br label %28

28:                                               ; preds = %21, %14
  %29 = load { i8, i64 }, ptr %3, align 8
  ret { i8, i64 } %29
}

; Function Attrs: mustprogress nounwind uwtable
define linkonce_odr hidden void @_ZN4llvm11InstrAspectC2EjjNS_3LLTE(ptr noundef nonnull align 8 dereferenceable(16) %0, i32 noundef %1, i32 noundef %2, i64 %3) unnamed_addr #0 comdat align 2 {
  %5 = alloca %"class.llvm::LLT", align 8
  %6 = alloca ptr, align 8
  %7 = alloca i32, align 4
  %8 = alloca i32, align 4
  %9 = getelementptr inbounds nuw %"class.llvm::LLT", ptr %5, i32 0, i32 0
  store i64 %3, ptr %9, align 8
  store ptr %0, ptr %6, align 8
  store i32 %1, ptr %7, align 4
  store i32 %2, ptr %8, align 4
  %10 = load ptr, ptr %6, align 8
  %11 = getelementptr inbounds nuw %"struct.llvm::InstrAspect", ptr %10, i32 0, i32 0
  %12 = load i32, ptr %7, align 4
  store i32 %12, ptr %11, align 8
  %13 = getelementptr inbounds nuw %"struct.llvm::InstrAspect", ptr %10, i32 0, i32 1
  %14 = load i32, ptr %8, align 4
  store i32 %14, ptr %13, align 4
  %15 = getelementptr inbounds nuw %"struct.llvm::InstrAspect", ptr %10, i32 0, i32 2
  call void @llvm.memcpy.p0.p0.i64(ptr align 8 %15, ptr align 8 %5, i64 8, i1 false)
  ret void
}

; Function Attrs: mustprogress nounwind uwtable
define linkonce_odr hidden noundef nonnull align 8 dereferenceable(8) ptr @_ZNK4llvm8ArrayRefINS_3LLTEEixEm(ptr noundef nonnull align 8 dereferenceable(16) %0, i64 noundef %1) #0 comdat align 2 {
  %3 = alloca ptr, align 8
  %4 = alloca i64, align 8
  store ptr %0, ptr %3, align 8
  store i64 %1, ptr %4, align 8
  %5 = load ptr, ptr %3, align 8
  %6 = getelementptr inbounds nuw %"class.llvm::ArrayRef", ptr %5, i32 0, i32 0
  %7 = load ptr, ptr %6, align 8
  %8 = load i64, ptr %4, align 8
  %9 = getelementptr inbounds %"class.llvm::LLT", ptr %7, i64 %8
  ret ptr %9
}

; Function Attrs: mustprogress nounwind uwtable
define linkonce_odr hidden noundef i64 @_ZNK4llvm8ArrayRefINS_3LLTEE4sizeEv(ptr noundef nonnull align 8 dereferenceable(16) %0) #0 comdat align 2 {
  %2 = alloca ptr, align 8
  store ptr %0, ptr %2, align 8
  %3 = load ptr, ptr %2, align 8
  %4 = getelementptr inbounds nuw %"class.llvm::ArrayRef", ptr %3, i32 0, i32 1
  %5 = load i64, ptr %4, align 8
  ret i64 %5
}

; Function Attrs: mustprogress nounwind uwtable
define dso_local { i64, i64 } @_ZNK4llvm19LegacyLegalizerInfo9getActionERKNS_13LegalityQueryE(ptr noundef nonnull align 8 dereferenceable(80040) %0, ptr noundef nonnull align 8 dereferenceable(40) %1) #0 align 2 {
  %3 = alloca %"struct.llvm::LegacyLegalizeActionStep", align 8
  %4 = alloca ptr, align 8
  %5 = alloca ptr, align 8
  %6 = alloca i32, align 4
  %7 = alloca %"struct.std::pair.26", align 8
  %8 = alloca %"struct.llvm::InstrAspect", align 8
  %9 = alloca %"class.llvm::LLT", align 8
  %10 = alloca %"class.llvm::LLT", align 8
  %11 = alloca %"class.llvm::LLT", align 8
  store ptr %0, ptr %4, align 8
  store ptr %1, ptr %5, align 8
  %12 = load ptr, ptr %4, align 8
  store i32 0, ptr %6, align 4
  br label %13

13:                                               ; preds = %54, %2
  %14 = load i32, ptr %6, align 4
  %15 = zext i32 %14 to i64
  %16 = load ptr, ptr %5, align 8
  %17 = getelementptr inbounds nuw %"struct.llvm::LegalityQuery", ptr %16, i32 0, i32 1
  %18 = call noundef i64 @_ZNK4llvm8ArrayRefINS_3LLTEE4sizeEv(ptr noundef nonnull align 8 dereferenceable(16) %17)
  %19 = icmp ult i64 %15, %18
  br i1 %19, label %20, label %57

20:                                               ; preds = %13
  %21 = load ptr, ptr %5, align 8
  %22 = getelementptr inbounds nuw %"struct.llvm::LegalityQuery", ptr %21, i32 0, i32 0
  %23 = load i32, ptr %22, align 8
  %24 = load i32, ptr %6, align 4
  %25 = load ptr, ptr %5, align 8
  %26 = getelementptr inbounds nuw %"struct.llvm::LegalityQuery", ptr %25, i32 0, i32 1
  %27 = load i32, ptr %6, align 4
  %28 = zext i32 %27 to i64
  %29 = call noundef nonnull align 8 dereferenceable(8) ptr @_ZNK4llvm8ArrayRefINS_3LLTEEixEm(ptr noundef nonnull align 8 dereferenceable(16) %26, i64 noundef %28)
  call void @llvm.memcpy.p0.p0.i64(ptr align 8 %9, ptr align 8 %29, i64 8, i1 false)
  %30 = getelementptr inbounds nuw %"class.llvm::LLT", ptr %9, i32 0, i32 0
  %31 = load i64, ptr %30, align 8
  call void @_ZN4llvm11InstrAspectC2EjjNS_3LLTE(ptr noundef nonnull align 8 dereferenceable(16) %8, i32 noundef %23, i32 noundef %24, i64 %31)
  %32 = call { i8, i64 } @_ZNK4llvm19LegacyLegalizerInfo15getAspectActionERKNS_11InstrAspectE(ptr noundef nonnull align 8 dereferenceable(80040) %12, ptr noundef nonnull align 8 dereferenceable(16) %8)
  %33 = getelementptr inbounds nuw { i8, i64 }, ptr %7, i32 0, i32 0
  %34 = extractvalue { i8, i64 } %32, 0
  store i8 %34, ptr %33, align 8
  %35 = getelementptr inbounds nuw { i8, i64 }, ptr %7, i32 0, i32 1
  %36 = extractvalue { i8, i64 } %32, 1
  store i64 %36, ptr %35, align 8
  %37 = getelementptr inbounds nuw %"struct.std::pair.26", ptr %7, i32 0, i32 0
  %38 = load i8, ptr %37, align 8
  %39 = zext i8 %38 to i32
  %40 = icmp ne i32 %39, 0
  br i1 %40, label %41, label %50

41:                                               ; preds = %20
  br label %42

42:                                               ; preds = %41
  br label %43

43:                                               ; preds = %42
  %44 = getelementptr inbounds nuw %"struct.std::pair.26", ptr %7, i32 0, i32 0
  %45 = load i8, ptr %44, align 8
  %46 = load i32, ptr %6, align 4
  %47 = getelementptr inbounds nuw %"struct.std::pair.26", ptr %7, i32 0, i32 1
  call void @llvm.memcpy.p0.p0.i64(ptr align 8 %10, ptr align 8 %47, i64 8, i1 false)
  %48 = getelementptr inbounds nuw %"class.llvm::LLT", ptr %10, i32 0, i32 0
  %49 = load i64, ptr %48, align 8
  call void @_ZN4llvm24LegacyLegalizeActionStepC2ENS_21LegacyLegalizeActions20LegacyLegalizeActionEjNS_3LLTE(ptr noundef nonnull align 8 dereferenceable(16) %3, i8 noundef zeroext %45, i32 noundef %46, i64 %49)
  br label %62

50:                                               ; preds = %20
  br label %51

51:                                               ; preds = %50
  br label %52

52:                                               ; preds = %51
  br label %53

53:                                               ; preds = %52
  br label %54

54:                                               ; preds = %53
  %55 = load i32, ptr %6, align 4
  %56 = add i32 %55, 1
  store i32 %56, ptr %6, align 4
  br label %13, !llvm.loop !11

57:                                               ; preds = %13
  br label %58

58:                                               ; preds = %57
  br label %59

59:                                               ; preds = %58
  call void @_ZN4llvm3LLTC2Ev(ptr noundef nonnull align 8 dereferenceable(8) %11)
  %60 = getelementptr inbounds nuw %"class.llvm::LLT", ptr %11, i32 0, i32 0
  %61 = load i64, ptr %60, align 8
  call void @_ZN4llvm24LegacyLegalizeActionStepC2ENS_21LegacyLegalizeActions20LegacyLegalizeActionEjNS_3LLTE(ptr noundef nonnull align 8 dereferenceable(16) %3, i8 noundef zeroext 0, i32 noundef 0, i64 %61)
  br label %62

62:                                               ; preds = %59, %43
  %63 = load { i64, i64 }, ptr %3, align 8
  ret { i64, i64 } %63
}