; Function Attrs: mustprogress nounwind uwtable
define dso_local { i64, i64 } @_ZNK4llvm19LegacyLegalizerInfo9getActionERKNS_13LegalityQueryE(ptr noundef nonnull align 8 dereferenceable(80040) %0, ptr nocapture noundef nonnull readonly align 8 dereferenceable(40) %1) local_unnamed_addr #0 align 2 {
  %3 = alloca %"struct.llvm::InstrAspect", align 8
  %4 = getelementptr inbounds i8, ptr %1, i64 16
  %5 = load i64, ptr %4, align 8
  %.not16 = icmp eq i64 %5, 0
  br i1 %.not16, label %.loopexit, label %.lr.ph

.lr.ph:                                           ; preds = %2
  %6 = getelementptr inbounds nuw i8, ptr %1, i64 8
  %7 = getelementptr inbounds nuw i8, ptr %3, i64 4
  %8 = getelementptr inbounds nuw i8, ptr %3, i64 8
  br label %9

9:                                                ; preds = %.lr.ph, %28
  %10 = phi i64 [ 0, %.lr.ph ], [ %30, %28 ]
  %.015 = phi i32 [ 0, %.lr.ph ], [ %29, %28 ]
  %11 = load i32, ptr %1, align 8
  %12 = load ptr, ptr %6, align 8
  %13 = getelementptr inbounds %"class.llvm::LLT", ptr %12, i64 %10
  %.sroa.01.0.copyload = load i64, ptr %13, align 8
  store i32 %11, ptr %3, align 8
  store i32 %.015, ptr %7, align 4
  store i64 %.sroa.01.0.copyload, ptr %8, align 8
  %14 = and i64 %.sroa.01.0.copyload, 1
  %.not.i = icmp eq i64 %14, 0
  br i1 %.not.i, label %15, label %18

15:                                               ; preds = %9
  %spec.select.i.i.i = icmp ugt i64 %.sroa.01.0.copyload, 7
  %16 = and i64 %.sroa.01.0.copyload, 6
  %17 = icmp eq i64 %16, 2
  %or.cond.i = and i1 %spec.select.i.i.i, %17
  br i1 %or.cond.i, label %18, label %_ZNK4llvm3LLT9isPointerEv.exit.thread.i

18:                                               ; preds = %15, %9
  %19 = call { i8, i64 } @_ZNK4llvm19LegacyLegalizerInfo21findScalarLegalActionERKNS_11InstrAspectE(ptr noundef nonnull align 8 dereferenceable(80040) %0, ptr noundef nonnull readonly align 8 dereferenceable(16) %3)
  br label %_ZNK4llvm19LegacyLegalizerInfo15getAspectActionERKNS_11InstrAspectE.exit

_ZNK4llvm3LLT9isPointerEv.exit.thread.i:          ; preds = %15
  %20 = call { i8, i64 } @_ZNK4llvm19LegacyLegalizerInfo21findVectorLegalActionERKNS_11InstrAspectE(ptr noundef nonnull align 8 dereferenceable(80040) %0, ptr noundef nonnull readonly align 8 dereferenceable(16) %3)
  br label %_ZNK4llvm19LegacyLegalizerInfo15getAspectActionERKNS_11InstrAspectE.exit

_ZNK4llvm19LegacyLegalizerInfo15getAspectActionERKNS_11InstrAspectE.exit: ; preds = %18, %_ZNK4llvm3LLT9isPointerEv.exit.thread.i
  %.pn.i = phi { i8, i64 } [ %19, %18 ], [ %20, %_ZNK4llvm3LLT9isPointerEv.exit.thread.i ]
  %21 = extractvalue { i8, i64 } %.pn.i, 0
  %.not = icmp eq i8 %21, 0
  br i1 %.not, label %28, label %22

22:                                               ; preds = %_ZNK4llvm19LegacyLegalizerInfo15getAspectActionERKNS_11InstrAspectE.exit
  %23 = extractvalue { i8, i64 } %.pn.i, 1
  %24 = zext i32 %.015 to i64
  %25 = shl nuw i64 %24, 32
  %26 = zext i8 %21 to i64
  %27 = or disjoint i64 %25, %26
  br label %.loopexit

28:                                               ; preds = %_ZNK4llvm19LegacyLegalizerInfo15getAspectActionERKNS_11InstrAspectE.exit
  %29 = add i32 %.015, 1
  %30 = zext i32 %29 to i64
  %31 = load i64, ptr %4, align 8
  %32 = icmp ugt i64 %31, %30
  br i1 %32, label %9, label %.loopexit, !llvm.loop !80

.loopexit:                                        ; preds = %28, %2, %22
  %.sroa.5.0 = phi i64 [ %23, %22 ], [ 0, %2 ], [ 0, %28 ]
  %.sroa.012.0.insert.insert = phi i64 [ %27, %22 ], [ 0, %2 ], [ 0, %28 ]
  %.fca.0.insert = insertvalue { i64, i64 } poison, i64 %.sroa.012.0.insert.insert, 0
  %.fca.1.insert = insertvalue { i64, i64 } %.fca.0.insert, i64 %.sroa.5.0, 1
  ret { i64, i64 } %.fca.1.insert
}